target datalayout = "e-m:e-p270:32:32-p271:32:32-p272:64:64-i64:64-i128:128-f80:128-n8:16:32:64-S128"
target triple = "x86_64-pc-linux-gnu"

%"class.nanobind::handle" = type { ptr }
%"class.Eigen::Matrix" = type { %"class.Eigen::PlainObjectBase" }
%"class.Eigen::PlainObjectBase" = type { %"class.Eigen::DenseStorage" }
%"class.Eigen::DenseStorage" = type { ptr, i64, i64 }
%class.anon.70 = type { %"class.Eigen::Matrix" }
%"class.Eigen::internal::CompressedStorage" = type { ptr, ptr, i64, i64 }
%"class.Eigen::SparseView" = type { %"class.Eigen::SparseMatrixBase.1222", ptr, float, float }
%"class.Eigen::SparseMatrixBase.1222" = type { i8 }
%"struct.Eigen::internal::assign_op.1214" = type { i8 }
%class.anon.1263 = type { i8 }
%struct.capture.1260 = type { %class.anon.70 }
%"class.Eigen::SparseMatrix.1265" = type { %"class.Eigen::SparseCompressedBase.1266", i64, i64, ptr, ptr, %"class.Eigen::internal::CompressedStorage" }
%"class.Eigen::SparseCompressedBase.1266" = type { %"class.Eigen::SparseMatrixBase.1267" }
%"class.Eigen::SparseMatrixBase.1267" = type { i8 }

; Function Attrs: inlinehint mustprogress nounwind optsize uwtable
define linkonce_odr hidden noundef nonnull align 8 dereferenceable(72) ptr @_ZN5Eigen16SparseMatrixBaseINS_12SparseMatrixIfLi0EiEEE7derivedEv(ptr noundef nonnull align 1 dereferenceable(1) %0) #11 comdat align 2 {
  %2 = alloca ptr, align 8
  store ptr %0, ptr %2, align 8, !tbaa !2435
  %3 = load ptr, ptr %2, align 8
  ret ptr %3
}

; Function Attrs: mustprogress optsize uwtable
define linkonce_odr hidden void @_ZN5Eigen8internal10AssignmentINS_12SparseMatrixIfLi0EiEENS_10SparseViewINS_6MatrixIfLin1ELin1ELi0ELin1ELin1EEEEENS0_9assign_opIffEENS0_13Sparse2SparseEvE3runERS3_RKS7_RKS9_(ptr noundef nonnull align 8 dereferenceable(72) %0, ptr noundef nonnull align 8 dereferenceable(24) %1, ptr noundef nonnull align 1 dereferenceable(1) %2) #3 comdat align 2 {
  %4 = alloca ptr, align 8
  %5 = alloca ptr, align 8
  %6 = alloca ptr, align 8
  store ptr %0, ptr %4, align 8, !tbaa !2424
  store ptr %1, ptr %5, align 8, !tbaa !2322
  store ptr %2, ptr %6, align 8, !tbaa !2298
  %7 = load ptr, ptr %4, align 8, !tbaa !2424
  %8 = call noundef nonnull align 8 dereferenceable(72) ptr @_ZN5Eigen16SparseMatrixBaseINS_12SparseMatrixIfLi0EiEEE7derivedEv(ptr noundef nonnull align 1 dereferenceable(1) %7) #24
  %9 = load ptr, ptr %5, align 8, !tbaa !2322
  %10 = call noundef nonnull align 8 dereferenceable(24) ptr @_ZNK5Eigen16SparseMatrixBaseINS_10SparseViewINS_6MatrixIfLin1ELin1ELi0ELin1ELin1EEEEEE7derivedEv(ptr noundef nonnull align 1 dereferenceable(1) %9) #24
  call void @_ZN5Eigen8internal23assign_sparse_to_sparseINS_12SparseMatrixIfLi0EiEENS_10SparseViewINS_6MatrixIfLin1ELin1ELi0ELin1ELin1EEEEEEEvRT_RKT0_(ptr noundef nonnull align 8 dereferenceable(72) %8, ptr noundef nonnull align 8 dereferenceable(24) %10) #24
  ret void
}

; Function Attrs: inlinehint mustprogress optsize uwtable
define linkonce_odr hidden void @_ZN5Eigen8internal24call_assignment_no_aliasINS_12SparseMatrixIfLi0EiEENS_10SparseViewINS_6MatrixIfLin1ELin1ELi0ELin1ELin1EEEEENS0_9assign_opIffEEEEvRT_RKT0_RKT1_(ptr noundef nonnull align 8 dereferenceable(72) %0, ptr noundef nonnull align 8 dereferenceable(24) %1, ptr noundef nonnull align 1 dereferenceable(1) %2) #10 comdat {
  %4 = alloca ptr, align 8
  %5 = alloca ptr, align 8
  %6 = alloca ptr, align 8
  %7 = alloca ptr, align 8
  store ptr %0, ptr %4, align 8, !tbaa !2424
  store ptr %1, ptr %5, align 8, !tbaa !2322
  store ptr %2, ptr %6, align 8, !tbaa !2298
  call void @llvm.lifetime.start.p0(i64 8, ptr %7) #25
  %8 = load ptr, ptr %4, align 8, !tbaa !2424
  store ptr %8, ptr %7, align 8, !tbaa !2424
  %9 = load ptr, ptr %7, align 8, !tbaa !2424
  %10 = load ptr, ptr %5, align 8, !tbaa !2322
  %11 = load ptr, ptr %6, align 8, !tbaa !2298
  call void @_ZN5Eigen8internal10AssignmentINS_12SparseMatrixIfLi0EiEENS_10SparseViewINS_6MatrixIfLin1ELin1ELi0ELin1ELin1EEEEENS0_9assign_opIffEENS0_13Sparse2SparseEvE3runERS3_RKS7_RKS9_(ptr noundef nonnull align 8 dereferenceable(72) %9, ptr noundef nonnull align 8 dereferenceable(24) %10, ptr noundef nonnull align 1 dereferenceable(1) %11) #24
  call void @llvm.lifetime.end.p0(i64 8, ptr %7) #25
  ret void
}

; Function Attrs: inlinehint mustprogress nounwind optsize uwtable
define linkonce_odr hidden void @_ZN5Eigen8internal9assign_opIffEC2Ev(ptr noundef nonnull align 1 dereferenceable(1) %0) unnamed_addr #11 comdat align 2 {
  %2 = alloca ptr, align 8
  store ptr %0, ptr %2, align 8, !tbaa !2298
  ret void
}

; Function Attrs: mustprogress nounwind optsize uwtable
define linkonce_odr hidden void @_ZN5Eigen16SparseMatrixBaseINS_12SparseMatrixIfLi0EiEEEC2Ev(ptr noundef nonnull align 1 dereferenceable(1) %0) unnamed_addr #1 comdat align 2 {
  %2 = alloca ptr, align 8
  store ptr %0, ptr %2, align 8, !tbaa !2435
  %3 = load ptr, ptr %2, align 8
  %4 = getelementptr inbounds nuw %"class.Eigen::SparseMatrixBase.1267", ptr %3, i32 0, i32 0
  store i8 0, ptr %4, align 1, !tbaa !2437
  ret void
}

; Function Attrs: inlinehint mustprogress optsize uwtable
define linkonce_odr hidden void @_ZN5Eigen8internal24call_assignment_no_aliasINS_12SparseMatrixIfLi0EiEENS_10SparseViewINS_6MatrixIfLin1ELin1ELi0ELin1ELin1EEEEEEEvRT_RKT0_(ptr noundef nonnull align 8 dereferenceable(72) %0, ptr noundef nonnull align 8 dereferenceable(24) %1) #10 comdat {
  %3 = alloca ptr, align 8
  %4 = alloca ptr, align 8
  %5 = alloca %"struct.Eigen::internal::assign_op.1214", align 1
  store ptr %0, ptr %3, align 8, !tbaa !2424
  store ptr %1, ptr %4, align 8, !tbaa !2322
  %6 = load ptr, ptr %3, align 8, !tbaa !2424
  %7 = load ptr, ptr %4, align 8, !tbaa !2322
  call void @llvm.lifetime.start.p0(i64 1, ptr %5) #25
  call void @_ZN5Eigen8internal9assign_opIffEC2Ev(ptr noundef nonnull align 1 dereferenceable(1) %5) #24
  call void @_ZN5Eigen8internal24call_assignment_no_aliasINS_12SparseMatrixIfLi0EiEENS_10SparseViewINS_6MatrixIfLin1ELin1ELi0ELin1ELin1EEEEENS0_9assign_opIffEEEEvRT_RKT0_RKT1_(ptr noundef nonnull align 8 dereferenceable(72) %6, ptr noundef nonnull align 8 dereferenceable(24) %7, ptr noundef nonnull align 1 dereferenceable(1) %5) #24
  call void @llvm.lifetime.end.p0(i64 1, ptr %5) #25
  ret void
}

; Function Attrs: inlinehint mustprogress nounwind optsize uwtable
define linkonce_odr hidden noundef nonnull align 8 dereferenceable(24) ptr @_ZNK5Eigen16SparseMatrixBaseINS_10SparseViewINS_6MatrixIfLin1ELin1ELi0ELin1ELin1EEEEEE7derivedEv(ptr noundef nonnull align 1 dereferenceable(1) %0) #11 comdat align 2 {
  %2 = alloca ptr, align 8
  store ptr %0, ptr %2, align 8, !tbaa !2328
  %3 = load ptr, ptr %2, align 8
  ret ptr %3
}

; Function Attrs: mustprogress nounwind optsize uwtable
define linkonce_odr hidden void @_ZN5Eigen12SparseMatrixIfLi0EiE25check_template_parametersEv() #1 comdat align 2 {
  ret void
}

; Function Attrs: mustprogress nounwind optsize uwtable
define linkonce_odr hidden void @_ZN5Eigen8internal17CompressedStorageIfiEC2Ev(ptr noundef nonnull align 8 dereferenceable(32) %0) unnamed_addr #1 comdat align 2 {
  %2 = alloca ptr, align 8
  store ptr %0, ptr %2, align 8, !tbaa !2277
  %3 = load ptr, ptr %2, align 8
  %4 = getelementptr inbounds nuw %"class.Eigen::internal::CompressedStorage", ptr %3, i32 0, i32 0
  store ptr null, ptr %4, align 8, !tbaa !2279
  %5 = getelementptr inbounds nuw %"class.Eigen::internal::CompressedStorage", ptr %3, i32 0, i32 1
  store ptr null, ptr %5, align 8, !tbaa !2280
  %6 = getelementptr inbounds nuw %"class.Eigen::internal::CompressedStorage", ptr %3, i32 0, i32 2
  store i64 0, ptr %6, align 8, !tbaa !2281
  %7 = getelementptr inbounds nuw %"class.Eigen::internal::CompressedStorage", ptr %3, i32 0, i32 3
  store i64 0, ptr %7, align 8, !tbaa !2282
  ret void
}

; Function Attrs: mustprogress optsize uwtable
define linkonce_odr hidden void @_ZN5Eigen20SparseCompressedBaseINS_12SparseMatrixIfLi0EiEEEC2Ev(ptr noundef nonnull align 1 dereferenceable(1) %0) unnamed_addr #3 comdat align 2 {
  %2 = alloca ptr, align 8
  store ptr %0, ptr %2, align 8, !tbaa !2431
  %3 = load ptr, ptr %2, align 8
  call void @_ZN5Eigen16SparseMatrixBaseINS_12SparseMatrixIfLi0EiEEEC2Ev(ptr noundef nonnull align 1 dereferenceable(1) %3) #24
  ret void
}

; Function Attrs: mustprogress nounwind optsize uwtable
define linkonce_odr hidden void @_ZN5Eigen16SparseMatrixBaseINS_10SparseViewINS_6MatrixIfLin1ELin1ELi0ELin1ELin1EEEEEEC2Ev(ptr noundef nonnull align 1 dereferenceable(1) %0) unnamed_addr #1 comdat align 2 {
  %2 = alloca ptr, align 8
  store ptr %0, ptr %2, align 8, !tbaa !2328
  %3 = load ptr, ptr %2, align 8
  %4 = getelementptr inbounds nuw %"class.Eigen::SparseMatrixBase.1222", ptr %3, i32 0, i32 0
  store i8 0, ptr %4, align 1, !tbaa !2330
  ret void
}

; Function Attrs: inlinehint mustprogress optsize uwtable
define linkonce_odr hidden void @_ZN5Eigen12SparseMatrixIfLi0EiEC2INS_10SparseViewINS_6MatrixIfLin1ELin1ELi0ELin1ELin1EEEEEEERKNS_16SparseMatrixBaseIT_EE(ptr noundef nonnull align 8 dereferenceable(72) %0, ptr noundef nonnull align 1 dereferenceable(1) %1) unnamed_addr #10 comdat align 2 personality ptr @__gxx_personality_v0 {
  %3 = alloca ptr, align 8
  %4 = alloca ptr, align 8
  %5 = alloca i8, align 1
  %6 = alloca ptr, align 8
  %7 = alloca i32, align 4
  store ptr %0, ptr %3, align 8, !tbaa !2424
  store ptr %1, ptr %4, align 8, !tbaa !2328
  %8 = load ptr, ptr %3, align 8
  call void @_ZN5Eigen20SparseCompressedBaseINS_12SparseMatrixIfLi0EiEEEC2Ev(ptr noundef nonnull align 1 dereferenceable(1) %8) #24
  %9 = getelementptr inbounds nuw %"class.Eigen::SparseMatrix.1265", ptr %8, i32 0, i32 1
  store i64 0, ptr %9, align 8, !tbaa !2434
  %10 = getelementptr inbounds nuw %"class.Eigen::SparseMatrix.1265", ptr %8, i32 0, i32 2
  store i64 0, ptr %10, align 8, !tbaa !2433
  %11 = getelementptr inbounds nuw %"class.Eigen::SparseMatrix.1265", ptr %8, i32 0, i32 3
  store ptr null, ptr %11, align 8, !tbaa !2426
  %12 = getelementptr inbounds nuw %"class.Eigen::SparseMatrix.1265", ptr %8, i32 0, i32 4
  store ptr null, ptr %12, align 8, !tbaa !2430
  %13 = getelementptr inbounds nuw %"class.Eigen::SparseMatrix.1265", ptr %8, i32 0, i32 5
  call void @_ZN5Eigen8internal17CompressedStorageIfiEC2Ev(ptr noundef nonnull align 8 dereferenceable(32) %13) #24
  call void @_ZN5Eigen12SparseMatrixIfLi0EiE25check_template_parametersEv() #24
  call void @llvm.lifetime.start.p0(i64 1, ptr %5) #25
  store i8 0, ptr %5, align 1, !tbaa !45
  %14 = load ptr, ptr %4, align 8, !tbaa !2328
  %15 = call noundef nonnull align 8 dereferenceable(24) ptr @_ZNK5Eigen16SparseMatrixBaseINS_10SparseViewINS_6MatrixIfLin1ELin1ELi0ELin1ELin1EEEEEE7derivedEv(ptr noundef nonnull align 1 dereferenceable(1) %14) #24
  invoke void @_ZN5Eigen8internal24call_assignment_no_aliasINS_12SparseMatrixIfLi0EiEENS_10SparseViewINS_6MatrixIfLin1ELin1ELi0ELin1ELin1EEEEEEEvRT_RKT0_(ptr noundef nonnull align 8 dereferenceable(72) %8, ptr noundef nonnull align 8 dereferenceable(24) %15) #24
          to label %16 unwind label %17

16:                                               ; preds = %2
  call void @llvm.lifetime.end.p0(i64 1, ptr %5) #25
  ret void

17:                                               ; preds = %2
  %18 = landingpad { ptr, i32 }
          cleanup
  %19 = extractvalue { ptr, i32 } %18, 0
  store ptr %19, ptr %6, align 8
  %20 = extractvalue { ptr, i32 } %18, 1
  store i32 %20, ptr %7, align 4
  call void @llvm.lifetime.end.p0(i64 1, ptr %5) #25
  call void @_ZN5Eigen8internal17CompressedStorageIfiED2Ev(ptr noundef nonnull align 8 dereferenceable(32) %13) #26
  br label %21

21:                                               ; preds = %17
  %22 = load ptr, ptr %6, align 8
  %23 = load i32, ptr %7, align 4
  %24 = insertvalue { ptr, i32 } poison, ptr %22, 0
  %25 = insertvalue { ptr, i32 } %24, i32 %23, 1
  resume { ptr, i32 } %25
}

; Function Attrs: mustprogress optsize uwtable
define linkonce_odr hidden void @_ZN5Eigen10SparseViewINS_6MatrixIfLin1ELin1ELi0ELin1ELin1EEEEC2ERKS2_RKfS7_(ptr noundef nonnull align 8 dereferenceable(24) %0, ptr noundef nonnull align 8 dereferenceable(24) %1, ptr noundef nonnull align 4 dereferenceable(4) %2, ptr noundef nonnull align 4 dereferenceable(4) %3) unnamed_addr #3 comdat align 2 {
  %5 = alloca ptr, align 8
  %6 = alloca ptr, align 8
  %7 = alloca ptr, align 8
  %8 = alloca ptr, align 8
  store ptr %0, ptr %5, align 8, !tbaa !2322
  store ptr %1, ptr %6, align 8, !tbaa !54
  store ptr %2, ptr %7, align 8, !tbaa !60
  store ptr %3, ptr %8, align 8, !tbaa !60
  %9 = load ptr, ptr %5, align 8
  call void @_ZN5Eigen16SparseMatrixBaseINS_10SparseViewINS_6MatrixIfLin1ELin1ELi0ELin1ELin1EEEEEEC2Ev(ptr noundef nonnull align 1 dereferenceable(1) %9) #24
  %10 = getelementptr inbounds nuw %"class.Eigen::SparseView", ptr %9, i32 0, i32 1
  %11 = load ptr, ptr %6, align 8, !tbaa !54
  store ptr %11, ptr %10, align 8, !tbaa !54
  %12 = getelementptr inbounds nuw %"class.Eigen::SparseView", ptr %9, i32 0, i32 2
  %13 = load ptr, ptr %7, align 8, !tbaa !60
  %14 = load float, ptr %13, align 4, !tbaa !28
  store float %14, ptr %12, align 8, !tbaa !2324
  %15 = getelementptr inbounds nuw %"class.Eigen::SparseView", ptr %9, i32 0, i32 3
  %16 = load ptr, ptr %8, align 8, !tbaa !60
  %17 = load float, ptr %16, align 4, !tbaa !28
  store float %17, ptr %15, align 4, !tbaa !2327
  ret void
}

; Function Attrs: inlinehint mustprogress nounwind optsize uwtable
define linkonce_odr hidden noundef float @_ZN5Eigen9NumTraitsIfE15dummy_precisionEv() #11 comdat align 2 {
  ret float 0x3EE4F8B580000000
}

; Function Attrs: inlinehint mustprogress nounwind optsize uwtable
define linkonce_odr hidden void @_ZN5Eigen12SparseMatrixIfLi0EiED2Ev(ptr noundef nonnull align 8 dereferenceable(72) %0) unnamed_addr #11 comdat align 2 {
  %2 = alloca ptr, align 8
  store ptr %0, ptr %2, align 8, !tbaa !2424
  %3 = load ptr, ptr %2, align 8
  %4 = getelementptr inbounds nuw %"class.Eigen::SparseMatrix.1265", ptr %3, i32 0, i32 3
  %5 = load ptr, ptr %4, align 8, !tbaa !2426
  call void @free(ptr noundef %5) #26
  %6 = getelementptr inbounds nuw %"class.Eigen::SparseMatrix.1265", ptr %3, i32 0, i32 4
  %7 = load ptr, ptr %6, align 8, !tbaa !2430
  call void @free(ptr noundef %7) #26
  %8 = getelementptr inbounds nuw %"class.Eigen::SparseMatrix.1265", ptr %3, i32 0, i32 5
  call void @_ZN5Eigen8internal17CompressedStorageIfiED2Ev(ptr noundef nonnull align 8 dereferenceable(32) %8) #26
  ret void
}

; Function Attrs: alwaysinline mustprogress nounwind optsize uwtable
define linkonce_odr hidden noundef ptr @_ZNK8nanobind6handle3ptrEv(ptr noundef nonnull align 8 dereferenceable(8) %0) #7 comdat align 2 {
  %2 = alloca ptr, align 8
  store ptr %0, ptr %2, align 8, !tbaa !20
  %3 = load ptr, ptr %2, align 8
  %4 = getelementptr inbounds nuw %"class.nanobind::handle", ptr %3, i32 0, i32 0
  %5 = load ptr, ptr %4, align 8, !tbaa !22
  ret ptr %5
}

; Function Attrs: mustprogress nounwind optsize uwtable
define linkonce_odr hidden ptr @_ZN8nanobind6detail11type_casterIN5Eigen12SparseMatrixIfLi0EiEEiE8from_cppEOS4_NS_9rv_policyEPNS0_12cleanup_listE(ptr noundef nonnull align 8 dereferenceable(72) %0, i32 noundef %1, ptr noundef %2) #1 comdat align 2 {
  %4 = alloca %"class.nanobind::handle", align 8
  %5 = alloca ptr, align 8
  %6 = alloca i32, align 4
  %7 = alloca ptr, align 8
  store ptr %0, ptr %5, align 8, !tbaa !2424
  store i32 %1, ptr %6, align 4, !tbaa !31
  store ptr %2, ptr %7, align 8, !tbaa !143
  %8 = load i32, ptr %6, align 4, !tbaa !31
  %9 = icmp eq i32 %8, 0
  br i1 %9, label %13, label %10

10:                                               ; preds = %3
  %11 = load i32, ptr %6, align 4, !tbaa !31
  %12 = icmp eq i32 %11, 1
  br i1 %12, label %13, label %14

13:                                               ; preds = %10, %3
  store i32 4, ptr %6, align 4, !tbaa !31
  br label %14

14:                                               ; preds = %13, %10
  %15 = load ptr, ptr %5, align 8, !tbaa !2424
  %16 = load i32, ptr %6, align 4, !tbaa !31
  %17 = load ptr, ptr %7, align 8, !tbaa !143
  %18 = call ptr @_ZN8nanobind6detail11type_casterIN5Eigen12SparseMatrixIfLi0EiEEiE8from_cppERKS4_NS_9rv_policyEPNS0_12cleanup_listE(ptr noundef nonnull align 8 dereferenceable(72) %15, i32 noundef %16, ptr noundef %17) #26
  %19 = getelementptr inbounds nuw %"class.nanobind::handle", ptr %4, i32 0, i32 0
  store ptr %18, ptr %19, align 8
  %20 = getelementptr inbounds nuw %"class.nanobind::handle", ptr %4, i32 0, i32 0
  %21 = load ptr, ptr %20, align 8
  ret ptr %21
}

; Function Attrs: inlinehint mustprogress optsize uwtable
define internal void @"_ZZL28nanobind_init_test_eigen_extRN8nanobind7module_EENK4$_35clEv"(ptr dead_on_unwind noalias writable sret(%"class.Eigen::SparseMatrix.1265") align 8 %0, ptr noundef nonnull align 8 dereferenceable(24) %1) #10 align 2 {
  %3 = alloca ptr, align 8
  %4 = alloca ptr, align 8
  %5 = alloca %"class.Eigen::SparseView", align 8
  %6 = alloca float, align 4
  %7 = alloca float, align 4
  store ptr %0, ptr %3, align 8
  store ptr %1, ptr %4, align 8, !tbaa !41
  %8 = load ptr, ptr %4, align 8
  call void @llvm.lifetime.start.p0(i64 24, ptr %5) #25
  %9 = getelementptr inbounds nuw %class.anon.70, ptr %8, i32 0, i32 0
  call void @llvm.lifetime.start.p0(i64 4, ptr %6) #25
  store float 0.000000e+00, ptr %6, align 4, !tbaa !28
  call void @llvm.lifetime.start.p0(i64 4, ptr %7) #25
  %10 = call noundef float @_ZN5Eigen9NumTraitsIfE15dummy_precisionEv() #24
  store float %10, ptr %7, align 4, !tbaa !28
  call void @_ZN5Eigen10SparseViewINS_6MatrixIfLin1ELin1ELi0ELin1ELin1EEEEC2ERKS2_RKfS7_(ptr noundef nonnull align 8 dereferenceable(24) %5, ptr noundef nonnull align 8 dereferenceable(24) %9, ptr noundef nonnull align 4 dereferenceable(4) %6, ptr noundef nonnull align 4 dereferenceable(4) %7) #24
  call void @_ZN5Eigen12SparseMatrixIfLi0EiEC2INS_10SparseViewINS_6MatrixIfLin1ELin1ELi0ELin1ELin1EEEEEEERKNS_16SparseMatrixBaseIT_EE(ptr noundef nonnull align 8 dereferenceable(72) %0, ptr noundef nonnull align 1 dereferenceable(1) %5) #24
  call void @llvm.lifetime.end.p0(i64 4, ptr %7) #25
  call void @llvm.lifetime.end.p0(i64 4, ptr %6) #25
  call void @llvm.lifetime.end.p0(i64 24, ptr %5) #25
  ret void
}

; Function Attrs: alwaysinline mustprogress optsize uwtable
define internal noundef ptr @"_ZZN8nanobind6detail11func_createILb0ELb1EZL28nanobind_init_test_eigen_extRNS_7module_EE4$_35N5Eigen12SparseMatrixIfLi0EiEEJETpTnmJEJNS_5scopeENS_4nameEEEEP7_objectOT1_PFT2_DpT3_ESt16integer_sequenceImJXspT4_EEEDpRKT5_ENKUlPvPSB_PhNS_9rv_policyEPNS0_12cleanup_listEE_clESP_SQ_SR_SS_SU_"(ptr noundef nonnull align 1 dereferenceable(1) %0, ptr noundef %1, ptr noundef %2, ptr noundef %3, i32 noundef %4, ptr noundef %5) #5 align 2 {
  %7 = alloca ptr, align 8
  %8 = alloca ptr, align 8
  %9 = alloca ptr, align 8
  %10 = alloca ptr, align 8
  %11 = alloca i32, align 4
  %12 = alloca ptr, align 8
  %13 = alloca ptr, align 8
  %14 = alloca ptr, align 8
  %15 = alloca %"class.nanobind::handle", align 8
  %16 = alloca %"class.Eigen::SparseMatrix.1265", align 8
  store ptr %0, ptr %7, align 8, !tbaa !41
  store ptr %1, ptr %8, align 8, !tbaa !41
  store ptr %2, ptr %9, align 8, !tbaa !141
  store ptr %3, ptr %10, align 8, !tbaa !39
  store i32 %4, ptr %11, align 4, !tbaa !31
  store ptr %5, ptr %12, align 8, !tbaa !143
  call void @llvm.lifetime.start.p0(i64 8, ptr %13) #25
  %17 = load ptr, ptr %8, align 8, !tbaa !41
  store ptr %17, ptr %13, align 8, !tbaa !2422
  call void @llvm.lifetime.start.p0(i64 8, ptr %14) #25
  call void @llvm.lifetime.start.p0(i64 8, ptr %15) #25
  call void @llvm.lifetime.start.p0(i64 72, ptr %16) #25
  %18 = load ptr, ptr %13, align 8, !tbaa !2422
  %19 = getelementptr inbounds nuw %struct.capture.1260, ptr %18, i32 0, i32 0
  call void @"_ZZL28nanobind_init_test_eigen_extRN8nanobind7module_EENK4$_35clEv"(ptr dead_on_unwind writable sret(%"class.Eigen::SparseMatrix.1265") align 8 %16, ptr noundef nonnull align 8 dereferenceable(24) %19) #24
  %20 = load i32, ptr %11, align 4, !tbaa !31
  %21 = load ptr, ptr %12, align 8, !tbaa !143
  %22 = call ptr @_ZN8nanobind6detail11type_casterIN5Eigen12SparseMatrixIfLi0EiEEiE8from_cppEOS4_NS_9rv_policyEPNS0_12cleanup_listE(ptr noundef nonnull align 8 dereferenceable(72) %16, i32 noundef %20, ptr noundef %21) #26
  %23 = getelementptr inbounds nuw %"class.nanobind::handle", ptr %15, i32 0, i32 0
  store ptr %22, ptr %23, align 8
  %24 = call noundef ptr @_ZNK8nanobind6handle3ptrEv(ptr noundef nonnull align 8 dereferenceable(8) %15) #24
  store ptr %24, ptr %14, align 8, !tbaa !14
  call void @_ZN5Eigen12SparseMatrixIfLi0EiED2Ev(ptr noundef nonnull align 8 dereferenceable(72) %16) #26
  call void @llvm.lifetime.end.p0(i64 72, ptr %16) #25
  call void @llvm.lifetime.end.p0(i64 8, ptr %15) #25
  %25 = load ptr, ptr %14, align 8, !tbaa !14
  call void @llvm.lifetime.end.p0(i64 8, ptr %14) #25
  call void @llvm.lifetime.end.p0(i64 8, ptr %13) #25
  ret ptr %25
}

; Function Attrs: inlinehint mustprogress optsize uwtable
define internal noundef ptr @"_ZZN8nanobind6detail11func_createILb0ELb1EZL28nanobind_init_test_eigen_extRNS_7module_EE4$_35N5Eigen12SparseMatrixIfLi0EiEEJETpTnmJEJNS_5scopeENS_4nameEEEEP7_objectOT1_PFT2_DpT3_ESt16integer_sequenceImJXspT4_EEEDpRKT5_ENUlPvPSB_PhNS_9rv_policyEPNS0_12cleanup_listEE_8__invokeESP_SQ_SR_SS_SU_"(ptr noundef %0, ptr noundef %1, ptr noundef %2, i32 noundef %3, ptr noundef %4) #10 align 2 {
  %6 = alloca ptr, align 8
  %7 = alloca ptr, align 8
  %8 = alloca ptr, align 8
  %9 = alloca i32, align 4
  %10 = alloca ptr, align 8
  %11 = alloca %class.anon.1263, align 1
  store ptr %0, ptr %6, align 8, !tbaa !41
  store ptr %1, ptr %7, align 8, !tbaa !141
  store ptr %2, ptr %8, align 8, !tbaa !39
  store i32 %3, ptr %9, align 4, !tbaa !31
  store ptr %4, ptr %10, align 8, !tbaa !143
  %12 = load ptr, ptr %6, align 8, !tbaa !41
  %13 = load ptr, ptr %7, align 8, !tbaa !141
  %14 = load ptr, ptr %8, align 8, !tbaa !39
  %15 = load i32, ptr %9, align 4, !tbaa !31
  %16 = load ptr, ptr %10, align 8, !tbaa !143
  %17 = call noundef ptr @"_ZZN8nanobind6detail11func_createILb0ELb1EZL28nanobind_init_test_eigen_extRNS_7module_EE4$_35N5Eigen12SparseMatrixIfLi0EiEEJETpTnmJEJNS_5scopeENS_4nameEEEEP7_objectOT1_PFT2_DpT3_ESt16integer_sequenceImJXspT4_EEEDpRKT5_ENKUlPvPSB_PhNS_9rv_policyEPNS0_12cleanup_listEE_clESP_SQ_SR_SS_SU_"(ptr noundef nonnull align 1 dereferenceable(1) %11, ptr noundef %12, ptr noundef %13, ptr noundef %14, i32 noundef %15, ptr noundef %16) #24
  ret ptr %17
}