; Function Attrs: inlinehint mustprogress optsize uwtable
define internal noundef ptr @"_ZZN8nanobind6detail11func_createILb0ELb1EZL28nanobind_init_test_eigen_extRNS_7module_EE4$_35N5Eigen12SparseMatrixIfLi0EiEEJETpTnmJEJNS_5scopeENS_4nameEEEEP7_objectOT1_PFT2_DpT3_ESt16integer_sequenceImJXspT4_EEEDpRKT5_ENUlPvPSB_PhNS_9rv_policyEPNS0_12cleanup_listEE_8__invokeESP_SQ_SR_SS_SU_"(ptr noundef %0, ptr readnone captures(none) %1, ptr readnone captures(none) %2, i32 noundef %3, ptr noundef %4) #18 align 2 personality ptr @__gxx_personality_v0 {
  %6 = alloca %"class.Eigen::SparseView", align 8
  %7 = alloca %"class.Eigen::SparseMatrix.1265", align 8
  call void @llvm.lifetime.start.p0(i64 72, ptr nonnull %7) #32
  tail call void @llvm.experimental.noalias.scope.decl(metadata !720)
  call void @llvm.lifetime.start.p0(i64 24, ptr nonnull %6) #32, !noalias !720
  store i8 0, ptr %6, align 8, !tbaa !646, !noalias !720
  %8 = getelementptr inbounds nuw i8, ptr %6, i64 8
  store ptr %0, ptr %8, align 8, !tbaa !648, !noalias !720
  %9 = getelementptr inbounds nuw i8, ptr %6, i64 16
  store float 0.000000e+00, ptr %9, align 8, !tbaa !650, !noalias !720
  %10 = getelementptr inbounds nuw i8, ptr %6, i64 20
  store float 0x3EE4F8B580000000, ptr %10, align 4, !tbaa !652, !noalias !720
  store i8 0, ptr %7, align 8, !tbaa !723, !alias.scope !720
  %11 = getelementptr inbounds nuw i8, ptr %7, i64 8
  call void @llvm.memset.p0.i64(ptr noundef nonnull align 8 dereferenceable(64) %11, i8 0, i64 64, i1 false), !alias.scope !720
  invoke void @_ZN5Eigen8internal23assign_sparse_to_sparseINS_12SparseMatrixIfLi0EiEENS_10SparseViewINS_6MatrixIfLin1ELin1ELi0ELin1ELin1EEEEEEEvRT_RKT0_(ptr noundef nonnull align 8 dereferenceable(72) %7, ptr noundef nonnull align 8 dereferenceable(24) %6) #31
          to label %"_ZZL28nanobind_init_test_eigen_extRN8nanobind7module_EENK4$_35clEv.exit" unwind label %12

12:                                               ; preds = %5
  %13 = landingpad { ptr, i32 }
          cleanup
  %14 = getelementptr inbounds nuw i8, ptr %7, i64 40
  call void @_ZN5Eigen8internal17CompressedStorageIfiED2Ev(ptr noundef nonnull align 8 dereferenceable(32) %14) #33
  resume { ptr, i32 } %13

"_ZZL28nanobind_init_test_eigen_extRN8nanobind7module_EENK4$_35clEv.exit": ; preds = %5
  call void @llvm.lifetime.end.p0(i64 24, ptr nonnull %6) #32, !noalias !720
  %or.cond.i = icmp ult i32 %3, 2
  %spec.store.select.i = select i1 %or.cond.i, i32 4, i32 %3
  %15 = call ptr @_ZN8nanobind6detail11type_casterIN5Eigen12SparseMatrixIfLi0EiEEiE8from_cppERKS4_NS_9rv_policyEPNS0_12cleanup_listE(ptr noundef nonnull align 8 dereferenceable(72) %7, i32 noundef %spec.store.select.i, ptr noundef %4) #33
  %16 = getelementptr inbounds nuw i8, ptr %7, i64 24
  %17 = load ptr, ptr %16, align 8, !tbaa !725
  call void @free(ptr noundef %17) #33
  %18 = getelementptr inbounds nuw i8, ptr %7, i64 32
  %19 = load ptr, ptr %18, align 8, !tbaa !728
  call void @free(ptr noundef %19) #33
  %20 = getelementptr inbounds nuw i8, ptr %7, i64 40
  call void @_ZN5Eigen8internal17CompressedStorageIfiED2Ev(ptr noundef nonnull align 8 dereferenceable(32) %20) #33
  call void @llvm.lifetime.end.p0(i64 72, ptr nonnull %7) #32
  ret ptr %15
}